target datalayout = "e-m:e-p270:32:32-p271:32:32-p272:64:64-i64:64-i128:128-f80:128-n8:16:32:64-S128"
target triple = "x86_64-pc-linux-gnu"

%struct.pmix_mca_base_framework_t = type { ptr, ptr, ptr, ptr, ptr, ptr, i32, i32, ptr, ptr, i32, i32, %struct.pmix_list_t, %struct.pmix_list_t }
%struct.pmix_list_t = type { %struct.pmix_object_t, %struct.pmix_list_item_t, i64 }
%struct.pmix_object_t = type { %union.pthread_mutex_t, ptr, i32, %struct.pmix_tma }
%union.pthread_mutex_t = type { %struct.__pthread_mutex_s }
%struct.__pthread_mutex_s = type { i32, i32, i32, i32, i32, i16, i16, %struct.__pthread_internal_list }
%struct.__pthread_internal_list = type { ptr, ptr }
%struct.pmix_tma = type { ptr, ptr, ptr, ptr, ptr, ptr, ptr, ptr }
%struct.pmix_list_item_t = type { %struct.pmix_object_t, ptr, ptr, i32 }
%struct.pmix_output_desc_t = type { i8, i8, i32, i8, i32, ptr, ptr, i32, ptr, i32, i8, i8, i8, i8, ptr, i32, i32 }
%struct.pmix_bfrop_type_info_t = type { %struct.pmix_object_t, i16, ptr, ptr, ptr, ptr, ptr }
%struct.pmix_pointer_array_t = type { %struct.pmix_object_t, i32, i32, i32, i32, i32, ptr, ptr }
%struct.pmix_proc = type { [256 x i8], i32 }

@pmix_bfrops_base_framework = external global %struct.pmix_mca_base_framework_t, align 8
@pmix_output_info = external global [0 x %struct.pmix_output_desc_t], align 8
@.str.6 = private unnamed_addr constant [37 x i8] c"PMIX ERROR: %s in file %s at line %d\00", align 1
@.str.7 = private unnamed_addr constant [25 x i8] c"base/bfrop_base_unpack.c\00", align 1
@.str.22 = private unnamed_addr constant [28 x i8] c"pmix_bfrop_unpack: %d procs\00", align 1
@.str.23 = private unnamed_addr constant [33 x i8] c"pmix_bfrop_unpack: init proc[%d]\00", align 1

; Function Attrs: inlinehint nounwind uwtable
define internal void @pmix_strncpy(ptr noundef %0, ptr noundef %1, i64 noundef %2) #3 {
  %4 = alloca ptr, align 8
  %5 = alloca ptr, align 8
  %6 = alloca i64, align 8
  %7 = alloca i64, align 8
  store ptr %0, ptr %4, align 8, !tbaa !38
  store ptr %1, ptr %5, align 8, !tbaa !38
  store i64 %2, ptr %6, align 8, !tbaa !54
  call void @llvm.lifetime.start.p0(i64 8, ptr %7) #11
  store i64 0, ptr %7, align 8, !tbaa !54
  br label %8

8:                                                ; preds = %22, %3
  %9 = load i64, ptr %7, align 8, !tbaa !54
  %10 = load i64, ptr %6, align 8, !tbaa !54
  %11 = icmp ult i64 %9, %10
  br i1 %11, label %12, label %29

12:                                               ; preds = %8
  %13 = load ptr, ptr %5, align 8, !tbaa !38
  %14 = load i8, ptr %13, align 1, !tbaa !41
  %15 = load ptr, ptr %4, align 8, !tbaa !38
  store i8 %14, ptr %15, align 1, !tbaa !41
  %16 = load ptr, ptr %5, align 8, !tbaa !38
  %17 = load i8, ptr %16, align 1, !tbaa !41
  %18 = sext i8 %17 to i32
  %19 = icmp eq i32 0, %18
  br i1 %19, label %20, label %21

20:                                               ; preds = %12
  br label %29

21:                                               ; preds = %12
  br label %22

22:                                               ; preds = %21
  %23 = load i64, ptr %7, align 8, !tbaa !54
  %24 = add i64 %23, 1
  store i64 %24, ptr %7, align 8, !tbaa !54
  %25 = load ptr, ptr %5, align 8, !tbaa !38
  %26 = getelementptr inbounds nuw i8, ptr %25, i32 1
  store ptr %26, ptr %5, align 8, !tbaa !38
  %27 = load ptr, ptr %4, align 8, !tbaa !38
  %28 = getelementptr inbounds nuw i8, ptr %27, i32 1
  store ptr %28, ptr %4, align 8, !tbaa !38
  br label %8, !llvm.loop !106

29:                                               ; preds = %20, %8
  %30 = load ptr, ptr %4, align 8, !tbaa !38
  store i8 0, ptr %30, align 1, !tbaa !41
  call void @llvm.lifetime.end.p0(i64 8, ptr %7) #11
  ret void
}

; Function Attrs: inlinehint nounwind uwtable
define internal ptr @pmix_pointer_array_get_item(ptr noundef %0, i32 noundef %1) #3 {
  %3 = alloca ptr, align 8
  %4 = alloca ptr, align 8
  %5 = alloca i32, align 4
  %6 = alloca ptr, align 8
  %7 = alloca i32, align 4
  store ptr %0, ptr %4, align 8, !tbaa !3
  store i32 %1, ptr %5, align 4, !tbaa !13
  call void @llvm.lifetime.start.p0(i64 8, ptr %6) #11
  %8 = load i32, ptr %5, align 4, !tbaa !13
  %9 = icmp sgt i32 0, %8
  br i1 %9, label %16, label %10

10:                                               ; preds = %2
  %11 = load ptr, ptr %4, align 8, !tbaa !3
  %12 = getelementptr inbounds nuw %struct.pmix_pointer_array_t, ptr %11, i32 0, i32 3
  %13 = load i32, ptr %12, align 8, !tbaa !33
  %14 = load i32, ptr %5, align 4, !tbaa !13
  %15 = icmp sle i32 %13, %14
  br label %16

16:                                               ; preds = %10, %2
  %17 = phi i1 [ true, %2 ], [ %15, %10 ]
  %18 = xor i1 %17, true
  %19 = xor i1 %18, true
  %20 = zext i1 %19 to i32
  %21 = sext i32 %20 to i64
  %22 = call i64 @llvm.expect.i64(i64 %21, i64 0)
  %23 = icmp ne i64 %22, 0
  br i1 %23, label %24, label %25

24:                                               ; preds = %16
  store ptr null, ptr %3, align 8
  store i32 1, ptr %7, align 4
  br label %34

25:                                               ; preds = %16
  %26 = load ptr, ptr %4, align 8, !tbaa !3
  %27 = getelementptr inbounds nuw %struct.pmix_pointer_array_t, ptr %26, i32 0, i32 7
  %28 = load ptr, ptr %27, align 8, !tbaa !36
  %29 = load i32, ptr %5, align 4, !tbaa !13
  %30 = sext i32 %29 to i64
  %31 = getelementptr inbounds ptr, ptr %28, i64 %30
  %32 = load ptr, ptr %31, align 8, !tbaa !8
  store ptr %32, ptr %6, align 8, !tbaa !8
  %33 = load ptr, ptr %6, align 8, !tbaa !8
  store ptr %33, ptr %3, align 8
  store i32 1, ptr %7, align 4
  br label %34

34:                                               ; preds = %25, %24
  call void @llvm.lifetime.end.p0(i64 8, ptr %6) #11
  %35 = load ptr, ptr %3, align 8
  ret ptr %35
}

; Function Attrs: nounwind uwtable
define i32 @pmix_bfrops_base_unpack_proc(ptr noundef %0, ptr noundef %1, ptr noundef %2, ptr noundef %3, i16 noundef zeroext %4) #0 {
  %6 = alloca i32, align 4
  %7 = alloca ptr, align 8
  %8 = alloca ptr, align 8
  %9 = alloca ptr, align 8
  %10 = alloca ptr, align 8
  %11 = alloca i16, align 2
  %12 = alloca ptr, align 8
  %13 = alloca i32, align 4
  %14 = alloca i32, align 4
  %15 = alloca i32, align 4
  %16 = alloca i32, align 4
  %17 = alloca ptr, align 8
  %18 = alloca ptr, align 8
  %19 = alloca i32, align 4
  %20 = alloca ptr, align 8
  store ptr %0, ptr %7, align 8, !tbaa !3
  store ptr %1, ptr %8, align 8, !tbaa !8
  store ptr %2, ptr %9, align 8, !tbaa !8
  store ptr %3, ptr %10, align 8, !tbaa !9
  store i16 %4, ptr %11, align 2, !tbaa !11
  call void @llvm.lifetime.start.p0(i64 8, ptr %12) #11
  call void @llvm.lifetime.start.p0(i64 4, ptr %13) #11
  call void @llvm.lifetime.start.p0(i64 4, ptr %14) #11
  call void @llvm.lifetime.start.p0(i64 4, ptr %15) #11
  call void @llvm.lifetime.start.p0(i64 4, ptr %16) #11
  call void @llvm.lifetime.start.p0(i64 8, ptr %17) #11
  %21 = load i32, ptr getelementptr inbounds nuw (%struct.pmix_mca_base_framework_t, ptr @pmix_bfrops_base_framework, i32 0, i32 11), align 4, !tbaa !15
  %22 = icmp sge i32 %21, 0
  br i1 %22, label %23, label %37

23:                                               ; preds = %5
  %24 = load i32, ptr getelementptr inbounds nuw (%struct.pmix_mca_base_framework_t, ptr @pmix_bfrops_base_framework, i32 0, i32 11), align 4, !tbaa !15
  %25 = icmp slt i32 %24, 64
  br i1 %25, label %26, label %37

26:                                               ; preds = %23
  %27 = load i32, ptr getelementptr inbounds nuw (%struct.pmix_mca_base_framework_t, ptr @pmix_bfrops_base_framework, i32 0, i32 11), align 4, !tbaa !15
  %28 = sext i32 %27 to i64
  %29 = getelementptr inbounds [0 x %struct.pmix_output_desc_t], ptr @pmix_output_info, i64 0, i64 %28
  %30 = getelementptr inbounds nuw %struct.pmix_output_desc_t, ptr %29, i32 0, i32 2
  %31 = load i32, ptr %30, align 4, !tbaa !26
  %32 = icmp sge i32 %31, 20
  br i1 %32, label %33, label %37

33:                                               ; preds = %26
  %34 = load i32, ptr getelementptr inbounds nuw (%struct.pmix_mca_base_framework_t, ptr @pmix_bfrops_base_framework, i32 0, i32 11), align 4, !tbaa !15
  %35 = load ptr, ptr %10, align 8, !tbaa !9
  %36 = load i32, ptr %35, align 4, !tbaa !13
  call void (i32, ptr, ...) @pmix_output(i32 noundef %34, ptr noundef @.str.22, i32 noundef %36)
  br label %37

37:                                               ; preds = %33, %26, %23, %5
  %38 = load ptr, ptr %9, align 8, !tbaa !8
  store ptr %38, ptr %12, align 8, !tbaa !137
  %39 = load ptr, ptr %10, align 8, !tbaa !9
  %40 = load i32, ptr %39, align 4, !tbaa !13
  store i32 %40, ptr %14, align 4, !tbaa !13
  store i32 0, ptr %13, align 4, !tbaa !13
  br label %41

41:                                               ; preds = %129, %37
  %42 = load i32, ptr %13, align 4, !tbaa !13
  %43 = load i32, ptr %14, align 4, !tbaa !13
  %44 = icmp slt i32 %42, %43
  br i1 %44, label %45, label %132

45:                                               ; preds = %41
  %46 = load i32, ptr getelementptr inbounds nuw (%struct.pmix_mca_base_framework_t, ptr @pmix_bfrops_base_framework, i32 0, i32 11), align 4, !tbaa !15
  %47 = icmp sge i32 %46, 0
  br i1 %47, label %48, label %61

48:                                               ; preds = %45
  %49 = load i32, ptr getelementptr inbounds nuw (%struct.pmix_mca_base_framework_t, ptr @pmix_bfrops_base_framework, i32 0, i32 11), align 4, !tbaa !15
  %50 = icmp slt i32 %49, 64
  br i1 %50, label %51, label %61

51:                                               ; preds = %48
  %52 = load i32, ptr getelementptr inbounds nuw (%struct.pmix_mca_base_framework_t, ptr @pmix_bfrops_base_framework, i32 0, i32 11), align 4, !tbaa !15
  %53 = sext i32 %52 to i64
  %54 = getelementptr inbounds [0 x %struct.pmix_output_desc_t], ptr @pmix_output_info, i64 0, i64 %53
  %55 = getelementptr inbounds nuw %struct.pmix_output_desc_t, ptr %54, i32 0, i32 2
  %56 = load i32, ptr %55, align 4, !tbaa !26
  %57 = icmp sge i32 %56, 20
  br i1 %57, label %58, label %61

58:                                               ; preds = %51
  %59 = load i32, ptr getelementptr inbounds nuw (%struct.pmix_mca_base_framework_t, ptr @pmix_bfrops_base_framework, i32 0, i32 11), align 4, !tbaa !15
  %60 = load i32, ptr %13, align 4, !tbaa !13
  call void (i32, ptr, ...) @pmix_output(i32 noundef %59, ptr noundef @.str.23, i32 noundef %60)
  br label %61

61:                                               ; preds = %58, %51, %48, %45
  %62 = load ptr, ptr %12, align 8, !tbaa !137
  %63 = load i32, ptr %13, align 4, !tbaa !13
  %64 = sext i32 %63 to i64
  %65 = getelementptr inbounds %struct.pmix_proc, ptr %62, i64 %64
  call void @llvm.memset.p0.i64(ptr align 4 %65, i8 0, i64 260, i1 false)
  store i32 1, ptr %15, align 4, !tbaa !13
  store ptr null, ptr %17, align 8, !tbaa !38
  br label %66

66:                                               ; preds = %61
  call void @llvm.lifetime.start.p0(i64 8, ptr %18) #11
  %67 = load ptr, ptr %7, align 8, !tbaa !3
  %68 = call ptr @pmix_pointer_array_get_item(ptr noundef %67, i32 noundef 3)
  store ptr %68, ptr %18, align 8, !tbaa !8
  %69 = load ptr, ptr %18, align 8, !tbaa !8
  %70 = icmp eq ptr null, %69
  br i1 %70, label %71, label %72

71:                                               ; preds = %66
  store i32 -16, ptr %16, align 4, !tbaa !13
  br label %79

72:                                               ; preds = %66
  %73 = load ptr, ptr %18, align 8, !tbaa !8
  %74 = getelementptr inbounds nuw %struct.pmix_bfrop_type_info_t, ptr %73, i32 0, i32 4
  %75 = load ptr, ptr %74, align 8, !tbaa !31
  %76 = load ptr, ptr %7, align 8, !tbaa !3
  %77 = load ptr, ptr %8, align 8, !tbaa !8
  %78 = call i32 %75(ptr noundef %76, ptr noundef %77, ptr noundef %17, ptr noundef %15, i16 noundef zeroext 3)
  store i32 %78, ptr %16, align 4, !tbaa !13
  br label %79

79:                                               ; preds = %72, %71
  call void @llvm.lifetime.end.p0(i64 8, ptr %18) #11
  br label %80

80:                                               ; preds = %79
  br label %81

81:                                               ; preds = %80
  %82 = load i32, ptr %16, align 4, !tbaa !13
  %83 = icmp ne i32 0, %82
  br i1 %83, label %84, label %86

84:                                               ; preds = %81
  %85 = load i32, ptr %16, align 4, !tbaa !13
  store i32 %85, ptr %6, align 4
  store i32 1, ptr %19, align 4
  br label %133

86:                                               ; preds = %81
  %87 = load ptr, ptr %17, align 8, !tbaa !38
  %88 = icmp eq ptr null, %87
  br i1 %88, label %89, label %94

89:                                               ; preds = %86
  br label %90

90:                                               ; preds = %89
  %91 = call ptr @PMIx_Error_string(i32 noundef -1)
  call void (i32, ptr, ...) @pmix_output(i32 noundef 0, ptr noundef @.str.6, ptr noundef %91, ptr noundef @.str.7, i32 noundef 932)
  br label %92

92:                                               ; preds = %90
  br label %93

93:                                               ; preds = %92
  store i32 -1, ptr %6, align 4
  store i32 1, ptr %19, align 4
  br label %133

94:                                               ; preds = %86
  %95 = load ptr, ptr %12, align 8, !tbaa !137
  %96 = load i32, ptr %13, align 4, !tbaa !13
  %97 = sext i32 %96 to i64
  %98 = getelementptr inbounds %struct.pmix_proc, ptr %95, i64 %97
  %99 = getelementptr inbounds nuw %struct.pmix_proc, ptr %98, i32 0, i32 0
  %100 = getelementptr inbounds [256 x i8], ptr %99, i64 0, i64 0
  %101 = load ptr, ptr %17, align 8, !tbaa !38
  call void @pmix_strncpy(ptr noundef %100, ptr noundef %101, i64 noundef 255)
  %102 = load ptr, ptr %17, align 8, !tbaa !38
  call void @free(ptr noundef %102) #11
  store i32 1, ptr %15, align 4, !tbaa !13
  br label %103

103:                                              ; preds = %94
  call void @llvm.lifetime.start.p0(i64 8, ptr %20) #11
  %104 = load ptr, ptr %7, align 8, !tbaa !3
  %105 = call ptr @pmix_pointer_array_get_item(ptr noundef %104, i32 noundef 40)
  store ptr %105, ptr %20, align 8, !tbaa !8
  %106 = load ptr, ptr %20, align 8, !tbaa !8
  %107 = icmp eq ptr null, %106
  br i1 %107, label %108, label %109

108:                                              ; preds = %103
  store i32 -16, ptr %16, align 4, !tbaa !13
  br label %121

109:                                              ; preds = %103
  %110 = load ptr, ptr %20, align 8, !tbaa !8
  %111 = getelementptr inbounds nuw %struct.pmix_bfrop_type_info_t, ptr %110, i32 0, i32 4
  %112 = load ptr, ptr %111, align 8, !tbaa !31
  %113 = load ptr, ptr %7, align 8, !tbaa !3
  %114 = load ptr, ptr %8, align 8, !tbaa !8
  %115 = load ptr, ptr %12, align 8, !tbaa !137
  %116 = load i32, ptr %13, align 4, !tbaa !13
  %117 = sext i32 %116 to i64
  %118 = getelementptr inbounds %struct.pmix_proc, ptr %115, i64 %117
  %119 = getelementptr inbounds nuw %struct.pmix_proc, ptr %118, i32 0, i32 1
  %120 = call i32 %112(ptr noundef %113, ptr noundef %114, ptr noundef %119, ptr noundef %15, i16 noundef zeroext 40)
  store i32 %120, ptr %16, align 4, !tbaa !13
  br label %121

121:                                              ; preds = %109, %108
  call void @llvm.lifetime.end.p0(i64 8, ptr %20) #11
  br label %122

122:                                              ; preds = %121
  br label %123

123:                                              ; preds = %122
  %124 = load i32, ptr %16, align 4, !tbaa !13
  %125 = icmp ne i32 0, %124
  br i1 %125, label %126, label %128

126:                                              ; preds = %123
  %127 = load i32, ptr %16, align 4, !tbaa !13
  store i32 %127, ptr %6, align 4
  store i32 1, ptr %19, align 4
  br label %133

128:                                              ; preds = %123
  br label %129

129:                                              ; preds = %128
  %130 = load i32, ptr %13, align 4, !tbaa !13
  %131 = add nsw i32 %130, 1
  store i32 %131, ptr %13, align 4, !tbaa !13
  br label %41, !llvm.loop !139

132:                                              ; preds = %41
  store i32 0, ptr %6, align 4
  store i32 1, ptr %19, align 4
  br label %133

133:                                              ; preds = %132, %126, %93, %84
  call void @llvm.lifetime.end.p0(i64 8, ptr %17) #11
  call void @llvm.lifetime.end.p0(i64 4, ptr %16) #11
  call void @llvm.lifetime.end.p0(i64 4, ptr %15) #11
  call void @llvm.lifetime.end.p0(i64 4, ptr %14) #11
  call void @llvm.lifetime.end.p0(i64 4, ptr %13) #11
  call void @llvm.lifetime.end.p0(i64 8, ptr %12) #11
  %134 = load i32, ptr %6, align 4
  ret i32 %134
}