; Function Attrs: nounwind uwtable
define i32 @pmix_bfrops_base_unpack_proc(ptr noundef %0, ptr noundef %1, ptr noundef %2, ptr noundef readonly captures(none) %3, i16 noundef zeroext %4) local_unnamed_addr #0 {
  %6 = alloca i32, align 4
  %7 = alloca ptr, align 8
  call void @llvm.lifetime.start.p0(i64 4, ptr nonnull %6) #10
  call void @llvm.lifetime.start.p0(i64 8, ptr nonnull %7) #10
  %8 = load i32, ptr getelementptr inbounds nuw (i8, ptr @pmix_bfrops_base_framework, i64 76), align 4, !tbaa !7
  %or.cond = icmp ult i32 %8, 64
  br i1 %or.cond, label %9, label %16

9:                                                ; preds = %5
  %10 = zext nneg i32 %8 to i64
  %11 = getelementptr inbounds nuw [0 x %struct.pmix_output_desc_t], ptr @pmix_output_info, i64 0, i64 %10, i32 2
  %12 = load i32, ptr %11, align 4, !tbaa !19
  %13 = icmp sgt i32 %12, 19
  br i1 %13, label %14, label %16

14:                                               ; preds = %9
  %15 = load i32, ptr %3, align 4, !tbaa !3
  tail call void (i32, ptr, ...) @pmix_output(i32 noundef %8, ptr noundef nonnull @.str.22, i32 noundef %15) #10
  br label %16

16:                                               ; preds = %14, %9, %5
  %17 = load i32, ptr %3, align 4, !tbaa !3
  %18 = icmp sgt i32 %17, 0
  br i1 %18, label %.lr.ph, label %.thread

.lr.ph:                                           ; preds = %16
  %19 = getelementptr inbounds nuw i8, ptr %0, i64 128
  %20 = getelementptr inbounds nuw i8, ptr %0, i64 152
  %wide.trip.count = zext nneg i32 %17 to i64
  br label %22

21:                                               ; preds = %59
  %indvars.iv.next = add nuw nsw i64 %indvars.iv, 1
  %exitcond.not = icmp eq i64 %indvars.iv.next, %wide.trip.count
  br i1 %exitcond.not, label %.thread, label %22, !llvm.loop !91

22:                                               ; preds = %.lr.ph, %21
  %indvars.iv = phi i64 [ 0, %.lr.ph ], [ %indvars.iv.next, %21 ]
  %23 = load i32, ptr getelementptr inbounds nuw (i8, ptr @pmix_bfrops_base_framework, i64 76), align 4, !tbaa !7
  %or.cond3 = icmp ult i32 %23, 64
  br i1 %or.cond3, label %24, label %31

24:                                               ; preds = %22
  %25 = zext nneg i32 %23 to i64
  %26 = getelementptr inbounds nuw [0 x %struct.pmix_output_desc_t], ptr @pmix_output_info, i64 0, i64 %25, i32 2
  %27 = load i32, ptr %26, align 4, !tbaa !19
  %28 = icmp sgt i32 %27, 19
  br i1 %28, label %29, label %31

29:                                               ; preds = %24
  %30 = trunc nuw nsw i64 %indvars.iv to i32
  call void (i32, ptr, ...) @pmix_output(i32 noundef %23, ptr noundef nonnull @.str.23, i32 noundef %30) #10
  br label %31

31:                                               ; preds = %29, %24, %22
  %32 = getelementptr inbounds nuw %struct.pmix_proc, ptr %2, i64 %indvars.iv
  call void @llvm.memset.p0.i64(ptr noundef nonnull align 4 dereferenceable(260) %32, i8 0, i64 260, i1 false)
  store i32 1, ptr %6, align 4, !tbaa !3
  store ptr null, ptr %7, align 8, !tbaa !63
  %33 = load i32, ptr %19, align 8, !tbaa !26
  %.not.i = icmp sgt i32 %33, 3
  br i1 %.not.i, label %pmix_pointer_array_get_item.exit, label %.thread, !prof !29

pmix_pointer_array_get_item.exit:                 ; preds = %31
  %34 = load ptr, ptr %20, align 8, !tbaa !30
  %35 = getelementptr inbounds nuw i8, ptr %34, i64 24
  %36 = load ptr, ptr %35, align 8, !tbaa !31
  %37 = icmp eq ptr %36, null
  br i1 %37, label %.thread, label %38

38:                                               ; preds = %pmix_pointer_array_get_item.exit
  %39 = getelementptr inbounds nuw i8, ptr %36, i64 144
  %40 = load ptr, ptr %39, align 8, !tbaa !32
  %41 = call i32 %40(ptr noundef nonnull %0, ptr noundef %1, ptr noundef nonnull %7, ptr noundef nonnull %6, i16 noundef zeroext 3) #10
  %.not = icmp eq i32 %41, 0
  br i1 %.not, label %42, label %.thread

42:                                               ; preds = %38
  %43 = load ptr, ptr %7, align 8, !tbaa !63
  %44 = icmp eq ptr %43, null
  br i1 %44, label %45, label %.preheader

45:                                               ; preds = %42
  %46 = call ptr @PMIx_Error_string(i32 noundef -1) #10
  call void (i32, ptr, ...) @pmix_output(i32 noundef 0, ptr noundef nonnull @.str.6, ptr noundef %46, ptr noundef nonnull @.str.7, i32 noundef 932) #10
  br label %.thread

.preheader:                                       ; preds = %42, %49
  %.012.i = phi i64 [ %50, %49 ], [ 0, %42 ]
  %.0811.i = phi ptr [ %52, %49 ], [ %32, %42 ]
  %.0910.i = phi ptr [ %51, %49 ], [ %43, %42 ]
  %47 = load i8, ptr %.0910.i, align 1, !tbaa !35
  store i8 %47, ptr %.0811.i, align 1, !tbaa !35
  %48 = icmp eq i8 %47, 0
  br i1 %48, label %pmix_strncpy.exit, label %49

49:                                               ; preds = %.preheader
  %50 = add nuw nsw i64 %.012.i, 1
  %51 = getelementptr inbounds nuw i8, ptr %.0910.i, i64 1
  %52 = getelementptr inbounds nuw i8, ptr %.0811.i, i64 1
  %exitcond.not.i = icmp eq i64 %50, 255
  br i1 %exitcond.not.i, label %pmix_strncpy.exit, label %.preheader, !llvm.loop !73

pmix_strncpy.exit:                                ; preds = %.preheader, %49
  %.08.lcssa.i = phi ptr [ %.0811.i, %.preheader ], [ %52, %49 ]
  store i8 0, ptr %.08.lcssa.i, align 1, !tbaa !35
  %53 = load ptr, ptr %7, align 8, !tbaa !63
  call void @free(ptr noundef %53) #10
  store i32 1, ptr %6, align 4, !tbaa !3
  %54 = load i32, ptr %19, align 8, !tbaa !26
  %.not.i38 = icmp sgt i32 %54, 40
  br i1 %.not.i38, label %pmix_pointer_array_get_item.exit40, label %.thread, !prof !29

pmix_pointer_array_get_item.exit40:               ; preds = %pmix_strncpy.exit
  %55 = load ptr, ptr %20, align 8, !tbaa !30
  %56 = getelementptr inbounds nuw i8, ptr %55, i64 320
  %57 = load ptr, ptr %56, align 8, !tbaa !31
  %58 = icmp eq ptr %57, null
  br i1 %58, label %.thread, label %59

59:                                               ; preds = %pmix_pointer_array_get_item.exit40
  %60 = getelementptr inbounds nuw i8, ptr %57, i64 144
  %61 = load ptr, ptr %60, align 8, !tbaa !32
  %62 = getelementptr inbounds nuw i8, ptr %32, i64 256
  %63 = call i32 %61(ptr noundef nonnull %0, ptr noundef %1, ptr noundef nonnull %62, ptr noundef nonnull %6, i16 noundef zeroext 40) #10
  %.not37 = icmp eq i32 %63, 0
  br i1 %.not37, label %21, label %.thread

.thread:                                          ; preds = %38, %59, %21, %pmix_pointer_array_get_item.exit, %31, %pmix_pointer_array_get_item.exit40, %pmix_strncpy.exit, %16, %45
  %.0 = phi i32 [ -1, %45 ], [ 0, %16 ], [ %41, %38 ], [ %63, %59 ], [ 0, %21 ], [ -16, %pmix_pointer_array_get_item.exit ], [ -16, %31 ], [ -16, %pmix_pointer_array_get_item.exit40 ], [ -16, %pmix_strncpy.exit ]
  call void @llvm.lifetime.end.p0(i64 8, ptr nonnull %7) #10
  call void @llvm.lifetime.end.p0(i64 4, ptr nonnull %6) #10
  ret i32 %.0
}